target datalayout = "e-m:e-p270:32:32-p271:32:32-p272:64:64-i64:64-i128:128-f80:128-n8:16:32:64-S128"
target triple = "x86_64-pc-linux-gnu"

%struct._generic_SUNMatrix = type { ptr, ptr, ptr }
%struct._SUNMatrixContent_Band = type { i64, i64, i64, i64, i64, i64, ptr, i64, ptr }

@.str = private unnamed_addr constant [2 x i8] c"\0A\00", align 1
@.str.1 = private unnamed_addr constant [7 x i8] c"%12s  \00", align 1
@.str.2 = private unnamed_addr constant [1 x i8] zeroinitializer, align 1
@.str.3 = private unnamed_addr constant [7 x i8] c"%12g  \00", align 1

; Function Attrs: nounwind uwtable
define void @SUNBandMatrix_Print(ptr noundef %0, ptr noundef %1) #0 {
  %3 = alloca ptr, align 8
  %4 = alloca ptr, align 8
  %5 = alloca ptr, align 8
  %6 = alloca i64, align 8
  %7 = alloca i64, align 8
  %8 = alloca i64, align 8
  %9 = alloca i64, align 8
  store ptr %0, ptr %3, align 8, !tbaa !10
  store ptr %1, ptr %4, align 8, !tbaa !48
  call void @llvm.lifetime.start.p0(i64 8, ptr %5) #8
  %10 = load ptr, ptr %3, align 8, !tbaa !10
  %11 = getelementptr inbounds nuw %struct._generic_SUNMatrix, ptr %10, i32 0, i32 2
  %12 = load ptr, ptr %11, align 8, !tbaa !41
  store ptr %12, ptr %5, align 8, !tbaa !7
  call void @llvm.lifetime.start.p0(i64 8, ptr %6) #8
  call void @llvm.lifetime.start.p0(i64 8, ptr %7) #8
  call void @llvm.lifetime.start.p0(i64 8, ptr %8) #8
  call void @llvm.lifetime.start.p0(i64 8, ptr %9) #8
  %13 = load ptr, ptr %4, align 8, !tbaa !48
  %14 = call i32 (ptr, ptr, ...) @fprintf(ptr noundef %13, ptr noundef @.str) #8
  store i64 0, ptr %6, align 8, !tbaa !3
  br label %15

15:                                               ; preds = %118, %2
  %16 = load i64, ptr %6, align 8, !tbaa !3
  %17 = load ptr, ptr %3, align 8, !tbaa !10
  %18 = getelementptr inbounds nuw %struct._generic_SUNMatrix, ptr %17, i32 0, i32 0
  %19 = load ptr, ptr %18, align 8, !tbaa !27
  %20 = getelementptr inbounds nuw %struct._SUNMatrixContent_Band, ptr %19, i32 0, i32 0
  %21 = load i64, ptr %20, align 8, !tbaa !28
  %22 = icmp slt i64 %16, %21
  br i1 %22, label %23, label %121

23:                                               ; preds = %15
  %24 = load i64, ptr %6, align 8, !tbaa !3
  %25 = load ptr, ptr %3, align 8, !tbaa !10
  %26 = getelementptr inbounds nuw %struct._generic_SUNMatrix, ptr %25, i32 0, i32 0
  %27 = load ptr, ptr %26, align 8, !tbaa !27
  %28 = getelementptr inbounds nuw %struct._SUNMatrixContent_Band, ptr %27, i32 0, i32 4
  %29 = load i64, ptr %28, align 8, !tbaa !34
  %30 = sub nsw i64 %24, %29
  %31 = icmp sgt i64 0, %30
  br i1 %31, label %32, label %33

32:                                               ; preds = %23
  br label %41

33:                                               ; preds = %23
  %34 = load i64, ptr %6, align 8, !tbaa !3
  %35 = load ptr, ptr %3, align 8, !tbaa !10
  %36 = getelementptr inbounds nuw %struct._generic_SUNMatrix, ptr %35, i32 0, i32 0
  %37 = load ptr, ptr %36, align 8, !tbaa !27
  %38 = getelementptr inbounds nuw %struct._SUNMatrixContent_Band, ptr %37, i32 0, i32 4
  %39 = load i64, ptr %38, align 8, !tbaa !34
  %40 = sub nsw i64 %34, %39
  br label %41

41:                                               ; preds = %33, %32
  %42 = phi i64 [ 0, %32 ], [ %40, %33 ]
  store i64 %42, ptr %8, align 8, !tbaa !3
  %43 = load ptr, ptr %3, align 8, !tbaa !10
  %44 = getelementptr inbounds nuw %struct._generic_SUNMatrix, ptr %43, i32 0, i32 0
  %45 = load ptr, ptr %44, align 8, !tbaa !27
  %46 = getelementptr inbounds nuw %struct._SUNMatrixContent_Band, ptr %45, i32 0, i32 1
  %47 = load i64, ptr %46, align 8, !tbaa !32
  %48 = sub nsw i64 %47, 1
  %49 = load i64, ptr %6, align 8, !tbaa !3
  %50 = load ptr, ptr %3, align 8, !tbaa !10
  %51 = getelementptr inbounds nuw %struct._generic_SUNMatrix, ptr %50, i32 0, i32 0
  %52 = load ptr, ptr %51, align 8, !tbaa !27
  %53 = getelementptr inbounds nuw %struct._SUNMatrixContent_Band, ptr %52, i32 0, i32 3
  %54 = load i64, ptr %53, align 8, !tbaa !33
  %55 = add nsw i64 %49, %54
  %56 = icmp slt i64 %48, %55
  br i1 %56, label %57, label %64

57:                                               ; preds = %41
  %58 = load ptr, ptr %3, align 8, !tbaa !10
  %59 = getelementptr inbounds nuw %struct._generic_SUNMatrix, ptr %58, i32 0, i32 0
  %60 = load ptr, ptr %59, align 8, !tbaa !27
  %61 = getelementptr inbounds nuw %struct._SUNMatrixContent_Band, ptr %60, i32 0, i32 1
  %62 = load i64, ptr %61, align 8, !tbaa !32
  %63 = sub nsw i64 %62, 1
  br label %72

64:                                               ; preds = %41
  %65 = load i64, ptr %6, align 8, !tbaa !3
  %66 = load ptr, ptr %3, align 8, !tbaa !10
  %67 = getelementptr inbounds nuw %struct._generic_SUNMatrix, ptr %66, i32 0, i32 0
  %68 = load ptr, ptr %67, align 8, !tbaa !27
  %69 = getelementptr inbounds nuw %struct._SUNMatrixContent_Band, ptr %68, i32 0, i32 3
  %70 = load i64, ptr %69, align 8, !tbaa !33
  %71 = add nsw i64 %65, %70
  br label %72

72:                                               ; preds = %64, %57
  %73 = phi i64 [ %63, %57 ], [ %71, %64 ]
  store i64 %73, ptr %9, align 8, !tbaa !3
  store i64 0, ptr %7, align 8, !tbaa !3
  br label %74

74:                                               ; preds = %81, %72
  %75 = load i64, ptr %7, align 8, !tbaa !3
  %76 = load i64, ptr %8, align 8, !tbaa !3
  %77 = icmp slt i64 %75, %76
  br i1 %77, label %78, label %84

78:                                               ; preds = %74
  %79 = load ptr, ptr %4, align 8, !tbaa !48
  %80 = call i32 (ptr, ptr, ...) @fprintf(ptr noundef %79, ptr noundef @.str.1, ptr noundef @.str.2) #8
  br label %81

81:                                               ; preds = %78
  %82 = load i64, ptr %7, align 8, !tbaa !3
  %83 = add nsw i64 %82, 1
  store i64 %83, ptr %7, align 8, !tbaa !3
  br label %74

84:                                               ; preds = %74
  %85 = load i64, ptr %8, align 8, !tbaa !3
  store i64 %85, ptr %7, align 8, !tbaa !3
  br label %86

86:                                               ; preds = %112, %84
  %87 = load i64, ptr %7, align 8, !tbaa !3
  %88 = load i64, ptr %9, align 8, !tbaa !3
  %89 = icmp sle i64 %87, %88
  br i1 %89, label %90, label %115

90:                                               ; preds = %86
  %91 = load ptr, ptr %4, align 8, !tbaa !48
  %92 = load ptr, ptr %3, align 8, !tbaa !10
  %93 = getelementptr inbounds nuw %struct._generic_SUNMatrix, ptr %92, i32 0, i32 0
  %94 = load ptr, ptr %93, align 8, !tbaa !27
  %95 = getelementptr inbounds nuw %struct._SUNMatrixContent_Band, ptr %94, i32 0, i32 8
  %96 = load ptr, ptr %95, align 8, !tbaa !39
  %97 = load i64, ptr %7, align 8, !tbaa !3
  %98 = getelementptr inbounds ptr, ptr %96, i64 %97
  %99 = load ptr, ptr %98, align 8, !tbaa !40
  %100 = load i64, ptr %6, align 8, !tbaa !3
  %101 = load i64, ptr %7, align 8, !tbaa !3
  %102 = sub nsw i64 %100, %101
  %103 = load ptr, ptr %3, align 8, !tbaa !10
  %104 = getelementptr inbounds nuw %struct._generic_SUNMatrix, ptr %103, i32 0, i32 0
  %105 = load ptr, ptr %104, align 8, !tbaa !27
  %106 = getelementptr inbounds nuw %struct._SUNMatrixContent_Band, ptr %105, i32 0, i32 5
  %107 = load i64, ptr %106, align 8, !tbaa !35
  %108 = add nsw i64 %102, %107
  %109 = getelementptr inbounds double, ptr %99, i64 %108
  %110 = load double, ptr %109, align 8, !tbaa !42
  %111 = call i32 (ptr, ptr, ...) @fprintf(ptr noundef %91, ptr noundef @.str.3, double noundef %110) #8
  br label %112

112:                                              ; preds = %90
  %113 = load i64, ptr %7, align 8, !tbaa !3
  %114 = add nsw i64 %113, 1
  store i64 %114, ptr %7, align 8, !tbaa !3
  br label %86

115:                                              ; preds = %86
  %116 = load ptr, ptr %4, align 8, !tbaa !48
  %117 = call i32 (ptr, ptr, ...) @fprintf(ptr noundef %116, ptr noundef @.str) #8
  br label %118

118:                                              ; preds = %115
  %119 = load i64, ptr %6, align 8, !tbaa !3
  %120 = add nsw i64 %119, 1
  store i64 %120, ptr %6, align 8, !tbaa !3
  br label %15

121:                                              ; preds = %15
  %122 = load ptr, ptr %4, align 8, !tbaa !48
  %123 = call i32 (ptr, ptr, ...) @fprintf(ptr noundef %122, ptr noundef @.str) #8
  call void @llvm.lifetime.end.p0(i64 8, ptr %9) #8
  call void @llvm.lifetime.end.p0(i64 8, ptr %8) #8
  call void @llvm.lifetime.end.p0(i64 8, ptr %7) #8
  call void @llvm.lifetime.end.p0(i64 8, ptr %6) #8
  call void @llvm.lifetime.end.p0(i64 8, ptr %5) #8
  ret void
}