; Function Attrs: nofree nounwind uwtable
define void @SUNBandMatrix_Print(ptr noundef readonly captures(none) %0, ptr noundef captures(none) %1) local_unnamed_addr #9 {
  %fputc = tail call i32 @fputc(i32 10, ptr %1)
  %3 = load ptr, ptr %0, align 8, !tbaa !20
  %4 = load i64, ptr %3, align 8, !tbaa !21
  %5 = icmp sgt i64 %4, 0
  br i1 %5, label %.lr.ph44, label %._crit_edge45

.lr.ph44:                                         ; preds = %2, %._crit_edge
  %6 = phi ptr [ %34, %._crit_edge ], [ %3, %2 ]
  %.042 = phi i64 [ %33, %._crit_edge ], [ 0, %2 ]
  %7 = getelementptr inbounds nuw i8, ptr %6, i64 32
  %8 = load i64, ptr %7, align 8, !tbaa !28
  %9 = sub i64 %.042, %8
  %spec.select = tail call i64 @llvm.smax.i64(i64 %9, i64 0)
  %10 = getelementptr inbounds nuw i8, ptr %6, i64 8
  %11 = load i64, ptr %10, align 8, !tbaa !26
  %12 = getelementptr inbounds nuw i8, ptr %6, i64 24
  %13 = load i64, ptr %12, align 8, !tbaa !27
  %14 = add nsw i64 %13, %.042
  %.not = icmp sgt i64 %11, %14
  %15 = add nsw i64 %11, -1
  %16 = select i1 %.not, i64 %14, i64 %15
  %17 = icmp sgt i64 %9, 0
  br i1 %17, label %.lr.ph, label %.preheader

.preheader:                                       ; preds = %.lr.ph, %.lr.ph44
  %.not3639 = icmp sgt i64 %spec.select, %16
  br i1 %.not3639, label %._crit_edge, label %.lr.ph41

.lr.ph:                                           ; preds = %.lr.ph44, %.lr.ph
  %.03038 = phi i64 [ %19, %.lr.ph ], [ 0, %.lr.ph44 ]
  %18 = tail call i32 (ptr, ptr, ...) @fprintf(ptr noundef %1, ptr noundef nonnull @.str.1, ptr noundef nonnull @.str.2) #18
  %19 = add nuw nsw i64 %.03038, 1
  %exitcond.not = icmp eq i64 %19, %9
  br i1 %exitcond.not, label %.preheader, label %.lr.ph

.lr.ph41:                                         ; preds = %.preheader, %.lr.ph41
  %.140 = phi i64 [ %32, %.lr.ph41 ], [ %spec.select, %.preheader ]
  %20 = load ptr, ptr %0, align 8, !tbaa !20
  %21 = getelementptr inbounds nuw i8, ptr %20, i64 64
  %22 = load ptr, ptr %21, align 8, !tbaa !33
  %23 = getelementptr inbounds nuw ptr, ptr %22, i64 %.140
  %24 = load ptr, ptr %23, align 8, !tbaa !34
  %25 = sub nsw i64 %.042, %.140
  %26 = getelementptr inbounds nuw i8, ptr %20, i64 40
  %27 = load i64, ptr %26, align 8, !tbaa !29
  %28 = getelementptr double, ptr %24, i64 %25
  %29 = getelementptr double, ptr %28, i64 %27
  %30 = load double, ptr %29, align 8, !tbaa !36
  %31 = tail call i32 (ptr, ptr, ...) @fprintf(ptr noundef %1, ptr noundef nonnull @.str.3, double noundef %30) #18
  %32 = add nuw nsw i64 %.140, 1
  %.not36.not = icmp slt i64 %.140, %16
  br i1 %.not36.not, label %.lr.ph41, label %._crit_edge

._crit_edge:                                      ; preds = %.lr.ph41, %.preheader
  %fputc37 = tail call i32 @fputc(i32 10, ptr %1)
  %33 = add nuw nsw i64 %.042, 1
  %34 = load ptr, ptr %0, align 8, !tbaa !20
  %35 = load i64, ptr %34, align 8, !tbaa !21
  %36 = icmp slt i64 %33, %35
  br i1 %36, label %.lr.ph44, label %._crit_edge45

._crit_edge45:                                    ; preds = %._crit_edge, %2
  %fputc35 = tail call i32 @fputc(i32 10, ptr %1)
  ret void
}